target datalayout = "e-m:e-p270:32:32-p271:32:32-p272:64:64-i64:64-i128:128-f80:128-n8:16:32:64-S128"
target triple = "x86_64-pc-linux-gnu"

%"class.icu_77::number::impl::SymbolsWrapper" = type { i32, %union.anon }
%union.anon = type { ptr }

; Function Attrs: mustprogress nounwind uwtable
define void @_ZN6icu_776number4impl14SymbolsWrapper9doCleanupEv(ptr noundef nonnull align 8 dereferenceable(16) %0) #0 align 2 {
  %2 = alloca ptr, align 8
  store ptr %0, ptr %2, align 8, !tbaa !23
  %3 = load ptr, ptr %2, align 8
  %4 = getelementptr inbounds nuw %"class.icu_77::number::impl::SymbolsWrapper", ptr %3, i32 0, i32 0
  %5 = load i32, ptr %4, align 8, !tbaa !25
  switch i32 %5, label %24 [
    i32 0, label %24
    i32 1, label %6
    i32 2, label %15
  ]

6:                                                ; preds = %1
  %7 = getelementptr inbounds nuw %"class.icu_77::number::impl::SymbolsWrapper", ptr %3, i32 0, i32 1
  %8 = load ptr, ptr %7, align 8, !tbaa !28
  %9 = icmp eq ptr %8, null
  br i1 %9, label %14, label %10

10:                                               ; preds = %6
  %11 = load ptr, ptr %8, align 8, !tbaa !29
  %12 = getelementptr inbounds ptr, ptr %11, i64 1
  %13 = load ptr, ptr %12, align 8
  call void %13(ptr noundef nonnull align 8 dereferenceable(2579) %8) #10
  br label %14

14:                                               ; preds = %10, %6
  br label %24

15:                                               ; preds = %1
  %16 = getelementptr inbounds nuw %"class.icu_77::number::impl::SymbolsWrapper", ptr %3, i32 0, i32 1
  %17 = load ptr, ptr %16, align 8, !tbaa !28
  %18 = icmp eq ptr %17, null
  br i1 %18, label %23, label %19

19:                                               ; preds = %15
  %20 = load ptr, ptr %17, align 8, !tbaa !29
  %21 = getelementptr inbounds ptr, ptr %20, i64 1
  %22 = load ptr, ptr %21, align 8
  call void %22(ptr noundef nonnull align 8 dereferenceable(86) %17) #10
  br label %23

23:                                               ; preds = %19, %15
  br label %24

24:                                               ; preds = %1, %23, %14, %1
  ret void
}

; Function Attrs: mustprogress uwtable
define void @_ZN6icu_776number4impl14SymbolsWrapper5setToERKNS_20DecimalFormatSymbolsE(ptr noundef nonnull align 8 dereferenceable(16) %0, ptr noundef nonnull align 8 dereferenceable(2579) %1) #1 align 2 personality ptr @__gxx_personality_v0 {
  %3 = alloca ptr, align 8
  %4 = alloca ptr, align 8
  %5 = alloca i1, align 1
  %6 = alloca ptr, align 8
  %7 = alloca i32, align 4
  store ptr %0, ptr %3, align 8, !tbaa !23
  store ptr %1, ptr %4, align 8, !tbaa !31
  %8 = load ptr, ptr %3, align 8
  call void @_ZN6icu_776number4impl14SymbolsWrapper9doCleanupEv(ptr noundef nonnull align 8 dereferenceable(16) %8)
  %9 = getelementptr inbounds nuw %"class.icu_77::number::impl::SymbolsWrapper", ptr %8, i32 0, i32 0
  store i32 1, ptr %9, align 8, !tbaa !25
  %10 = call noundef ptr @_ZN6icu_777UMemorynwEm(i64 noundef 2584) #10
  %11 = icmp eq ptr %10, null
  store i1 false, ptr %5, align 1
  br i1 %11, label %15, label %12

12:                                               ; preds = %2
  store i1 true, ptr %5, align 1
  %13 = load ptr, ptr %4, align 8, !tbaa !31
  invoke void @_ZN6icu_7720DecimalFormatSymbolsC1ERKS0_(ptr noundef nonnull align 8 dereferenceable(2579) %10, ptr noundef nonnull align 8 dereferenceable(2579) %13)
          to label %14 unwind label %18

14:                                               ; preds = %12
  br label %15

15:                                               ; preds = %14, %2
  %16 = phi ptr [ %10, %14 ], [ null, %2 ]
  %17 = getelementptr inbounds nuw %"class.icu_77::number::impl::SymbolsWrapper", ptr %8, i32 0, i32 1
  store ptr %16, ptr %17, align 8, !tbaa !28
  ret void

18:                                               ; preds = %12
  %19 = landingpad { ptr, i32 }
          cleanup
  %20 = extractvalue { ptr, i32 } %19, 0
  store ptr %20, ptr %6, align 8
  %21 = extractvalue { ptr, i32 } %19, 1
  store i32 %21, ptr %7, align 4
  %22 = load i1, ptr %5, align 1
  br i1 %22, label %23, label %24

23:                                               ; preds = %18
  call void @_ZN6icu_777UMemorydlEPv(ptr noundef %10) #10
  br label %24

24:                                               ; preds = %23, %18
  br label %25

25:                                               ; preds = %24
  %26 = load ptr, ptr %6, align 8
  %27 = load i32, ptr %7, align 4
  %28 = insertvalue { ptr, i32 } poison, ptr %26, 0
  %29 = insertvalue { ptr, i32 } %28, i32 %27, 1
  resume { ptr, i32 } %29
}